; Function Attrs: nounwind uwtable
define internal ptr @xor_xorhmacsha2sig_gen(ptr noundef readonly captures(none) %0, ptr readnone captures(none) %1, ptr readnone captures(none) %2) #0 {
  %4 = tail call noalias ptr @CRYPTO_zalloc(i64 noundef 88, ptr noundef nonnull @.str.2, i32 noundef 691) #16
  %5 = icmp eq ptr %4, null
  br i1 %5, label %xor_freekey.exit, label %6

6:                                                ; preds = %3
  %7 = getelementptr inbounds nuw i8, ptr %4, i64 80
  store atomic i32 1, ptr %7 seq_cst, align 4, !tbaa !33
  %8 = load i32, ptr %0, align 8, !tbaa !37
  %9 = and i32 %8, 3
  %.not.i = icmp eq i32 %9, 0
  br i1 %.not.i, label %xor_gen.exit, label %10

10:                                               ; preds = %6
  %11 = getelementptr inbounds nuw i8, ptr %0, i64 8
  %12 = load ptr, ptr %11, align 8, !tbaa !35
  %13 = tail call i32 @RAND_bytes_ex(ptr noundef %12, ptr noundef nonnull %4, i64 noundef 32, i32 noundef 0) #16
  %14 = icmp slt i32 %13, 1
  br i1 %14, label %xor_freekey.exit.sink.split, label %.preheader.i

.preheader.i:                                     ; preds = %10
  %15 = getelementptr inbounds nuw i8, ptr %4, i64 32
  br label %16

16:                                               ; preds = %16, %.preheader.i
  %.018.i = phi i64 [ 0, %.preheader.i ], [ %23, %16 ]
  %17 = getelementptr inbounds nuw [32 x i8], ptr %4, i64 0, i64 %.018.i
  %18 = load i8, ptr %17, align 1, !tbaa !39
  %19 = getelementptr inbounds nuw [32 x i8], ptr @private_constant, i64 0, i64 %.018.i
  %20 = load i8, ptr %19, align 1, !tbaa !39
  %21 = xor i8 %20, %18
  %22 = getelementptr inbounds nuw [32 x i8], ptr %15, i64 0, i64 %.018.i
  store i8 %21, ptr %22, align 1, !tbaa !39
  %23 = add nuw nsw i64 %.018.i, 1
  %exitcond.not.i = icmp eq i64 %23, 32
  br i1 %exitcond.not.i, label %24, label %16, !llvm.loop !40

24:                                               ; preds = %16
  %25 = getelementptr inbounds nuw i8, ptr %4, i64 64
  store i32 1, ptr %25, align 8, !tbaa !41
  %26 = getelementptr inbounds nuw i8, ptr %4, i64 68
  store i32 1, ptr %26, align 4, !tbaa !43
  br label %xor_gen.exit

xor_gen.exit:                                     ; preds = %24, %6
  %27 = tail call noalias ptr @CRYPTO_strdup(ptr noundef nonnull @.str.5, ptr noundef nonnull @.str.2, i32 noundef 1139) #16
  %28 = getelementptr inbounds nuw i8, ptr %4, i64 72
  store ptr %27, ptr %28, align 8, !tbaa !46
  %29 = icmp eq ptr %27, null
  br i1 %29, label %30, label %xor_freekey.exit

30:                                               ; preds = %xor_gen.exit
  %31 = atomicrmw sub ptr %7, i32 1 release, align 4
  %32 = icmp eq i32 %31, 1
  br i1 %32, label %CRYPTO_DOWN_REF.exit.thread.i, label %CRYPTO_DOWN_REF.exit.i

CRYPTO_DOWN_REF.exit.thread.i:                    ; preds = %30
  fence acquire
  br label %34

CRYPTO_DOWN_REF.exit.i:                           ; preds = %30
  %33 = icmp sgt i32 %31, 1
  br i1 %33, label %xor_freekey.exit, label %34

34:                                               ; preds = %CRYPTO_DOWN_REF.exit.i, %CRYPTO_DOWN_REF.exit.thread.i
  %35 = load ptr, ptr %28, align 8, !tbaa !46
  tail call void @CRYPTO_free(ptr noundef %35, ptr noundef nonnull @.str.2, i32 noundef 720) #16
  store ptr null, ptr %28, align 8, !tbaa !46
  br label %xor_freekey.exit.sink.split

xor_freekey.exit.sink.split:                      ; preds = %10, %34
  %.sink = phi i32 [ 724, %34 ], [ 985, %10 ]
  tail call void @CRYPTO_free(ptr noundef nonnull %4, ptr noundef nonnull @.str.2, i32 noundef %.sink) #16
  br label %xor_freekey.exit

xor_freekey.exit:                                 ; preds = %xor_freekey.exit.sink.split, %3, %CRYPTO_DOWN_REF.exit.i, %xor_gen.exit
  %.0 = phi ptr [ %4, %xor_gen.exit ], [ null, %CRYPTO_DOWN_REF.exit.i ], [ null, %3 ], [ null, %xor_freekey.exit.sink.split ]
  ret ptr %.0
}